target datalayout = "e-m:e-p270:32:32-p271:32:32-p272:64:64-i64:64-i128:128-f80:128-n8:16:32:64-S128"
target triple = "x86_64-pc-linux-gnu"

; Function Attrs: mustprogress uwtable
define internal noundef zeroext i1 @_ZN12_GLOBAL__N_114_isAlphaStringEPKci(ptr noundef %0, i32 noundef %1) #1 {
  %3 = alloca i1, align 1
  %4 = alloca ptr, align 8
  %5 = alloca i32, align 4
  %6 = alloca i32, align 4
  %7 = alloca i32, align 4
  store ptr %0, ptr %4, align 8, !tbaa !17
  store i32 %1, ptr %5, align 4, !tbaa !14
  call void @llvm.lifetime.start.p0(i64 4, ptr %6) #12
  store i32 0, ptr %6, align 4, !tbaa !14
  br label %8

8:                                                ; preds = %22, %2
  %9 = load i32, ptr %6, align 4, !tbaa !14
  %10 = load i32, ptr %5, align 4, !tbaa !14
  %11 = icmp slt i32 %9, %10
  br i1 %11, label %12, label %25

12:                                               ; preds = %8
  %13 = load ptr, ptr %4, align 8, !tbaa !17
  %14 = load i32, ptr %6, align 4, !tbaa !14
  %15 = sext i32 %14 to i64
  %16 = getelementptr inbounds i8, ptr %13, i64 %15
  %17 = load i8, ptr %16, align 1, !tbaa !23
  %18 = call noundef signext i8 @uprv_isASCIILetter_77(i8 noundef signext %17)
  %19 = icmp ne i8 %18, 0
  br i1 %19, label %21, label %20

20:                                               ; preds = %12
  store i1 false, ptr %3, align 1
  store i32 1, ptr %7, align 4
  br label %26

21:                                               ; preds = %12
  br label %22

22:                                               ; preds = %21
  %23 = load i32, ptr %6, align 4, !tbaa !14
  %24 = add nsw i32 %23, 1
  store i32 %24, ptr %6, align 4, !tbaa !14
  br label %8, !llvm.loop !24

25:                                               ; preds = %8
  store i1 true, ptr %3, align 1
  store i32 1, ptr %7, align 4
  br label %26

26:                                               ; preds = %25, %20
  call void @llvm.lifetime.end.p0(i64 4, ptr %6) #12
  %27 = load i1, ptr %3, align 1
  ret i1 %27
}

; Function Attrs: mustprogress uwtable
define noundef zeroext i1 @_Z23ultag_isScriptSubtag_77PKci(ptr noundef %0, i32 noundef %1) #1 {
  %3 = alloca i1, align 1
  %4 = alloca ptr, align 8
  %5 = alloca i32, align 4
  store ptr %0, ptr %4, align 8, !tbaa !17
  store i32 %1, ptr %5, align 4, !tbaa !14
  %6 = load i32, ptr %5, align 4, !tbaa !14
  %7 = icmp slt i32 %6, 0
  br i1 %7, label %8, label %12

8:                                                ; preds = %2
  %9 = load ptr, ptr %4, align 8, !tbaa !17
  %10 = call i64 @strlen(ptr noundef %9) #15
  %11 = trunc i64 %10 to i32
  store i32 %11, ptr %5, align 4, !tbaa !14
  br label %12

12:                                               ; preds = %8, %2
  %13 = load i32, ptr %5, align 4, !tbaa !14
  %14 = icmp eq i32 %13, 4
  br i1 %14, label %15, label %20

15:                                               ; preds = %12
  %16 = load ptr, ptr %4, align 8, !tbaa !17
  %17 = load i32, ptr %5, align 4, !tbaa !14
  %18 = call noundef zeroext i1 @_ZN12_GLOBAL__N_114_isAlphaStringEPKci(ptr noundef %16, i32 noundef %17)
  br i1 %18, label %19, label %20

19:                                               ; preds = %15
  store i1 true, ptr %3, align 1
  br label %21

20:                                               ; preds = %15, %12
  store i1 false, ptr %3, align 1
  br label %21

21:                                               ; preds = %20, %19
  %22 = load i1, ptr %3, align 1
  ret i1 %22
}