; Function Attrs: mustprogress uwtable
define noundef zeroext i1 @_Z23ultag_isScriptSubtag_77PKci(ptr noundef readonly captures(none) %0, i32 noundef %1) local_unnamed_addr #1 {
  %3 = icmp slt i32 %1, 0
  br i1 %3, label %4, label %7

4:                                                ; preds = %2
  %5 = tail call i64 @strlen(ptr noundef nonnull dereferenceable(1) %0) #20
  %6 = trunc i64 %5 to i32
  br label %7

7:                                                ; preds = %4, %2
  %.0 = phi i32 [ %6, %4 ], [ %1, %2 ]
  %8 = icmp eq i32 %.0, 4
  br i1 %8, label %.preheader, label %12

.preheader:                                       ; preds = %7, %.preheader
  %indvars.iv.i = phi i64 [ %indvars.iv.next.i, %.preheader ], [ 0, %7 ]
  %9 = getelementptr inbounds nuw i8, ptr %0, i64 %indvars.iv.i
  %10 = load i8, ptr %9, align 1, !tbaa !15
  %11 = tail call noundef signext i8 @uprv_isASCIILetter_77(i8 noundef signext %10)
  %.not.not.i = icmp ne i8 %11, 0
  %indvars.iv.next.i = add nuw nsw i64 %indvars.iv.i, 1
  %exitcond.not.i = icmp ne i64 %indvars.iv.next.i, 4
  %or.cond.not.i = select i1 %.not.not.i, i1 %exitcond.not.i, i1 false
  br i1 %or.cond.not.i, label %.preheader, label %_ZN12_GLOBAL__N_114_isAlphaStringEPKci.exit, !llvm.loop !16

_ZN12_GLOBAL__N_114_isAlphaStringEPKci.exit:      ; preds = %.preheader
  br i1 %.not.not.i, label %13, label %12

12:                                               ; preds = %_ZN12_GLOBAL__N_114_isAlphaStringEPKci.exit, %7
  br label %13

13:                                               ; preds = %_ZN12_GLOBAL__N_114_isAlphaStringEPKci.exit, %12
  %.05 = phi i1 [ false, %12 ], [ true, %_ZN12_GLOBAL__N_114_isAlphaStringEPKci.exit ]
  ret i1 %.05
}